Certificate:
    Data:
        Version: 3 (0x2)
        Serial Number: 2 (0x2)
    Signature Algorithm: sha1WithRSAEncryption
        Issuer: DC=org, DC=simple, O=Simple Inc, OU=Simple Signing CA, CN=Simple Signing CA
        Validity
            Not Before: May  4 01:25:36 2020 GMT
            Not After : May  4 01:25:36 2022 GMT
        Subject: DC=org, DC=simple, O=Simple Inc, CN=www.simple.org
        Subject Public Key Info:
            Public Key Algorithm: rsaEncryption
                Public-Key: (2048 bit)
                Modulus:
                    00:c9:d9:74:93:e7:71:f0:d0:da:a5:f3:86:c4:2e:
                    0f:ad:9c:84:46:3c:6c:28:94:41:46:fd:8b:4d:7c:
                    b4:80:07:57:ec:a6:ce:e8:b0:ed:58:17:43:91:14:
                    01:40:ec:e9:fa:e1:ff:9f:43:ee:1f:2f:12:fe:b4:
                    dc:14:e3:11:ce:97:10:6a:1d:49:ce:e1:3f:4c:4e:
                    09:6c:f5:c4:f4:a2:40:18:bb:d1:ef:e2:e8:f0:58:
                    e3:12:14:81:a6:b7:2e:28:65:6f:49:f2:f8:ca:91:
                    2f:9f:1b:31:7a:46:4a:9c:a5:9b:f1:f7:e7:4a:36:
                    f5:61:68:4b:76:7f:88:33:23:fb:bc:9a:28:f1:f8:
                    bf:11:1a:3b:d9:4d:98:54:02:52:da:85:ab:07:0e:
                    4f:c5:85:ea:f7:6a:ed:36:a4:fe:7c:51:56:71:c4:
                    76:5a:6a:3a:1b:ff:11:80:45:c9:73:21:a6:0b:66:
                    6b:d1:b3:5b:17:f7:e5:b2:af:a3:0b:a0:a0:23:c2:
                    49:c3:b4:ca:b0:1f:e8:ac:e3:5c:38:b5:20:f5:2e:
                    63:de:8d:88:01:f8:05:b4:2a:bb:49:9a:e0:32:55:
                    3a:93:65:3f:1a:6c:79:c4:0c:4e:64:51:17:02:87:
                    c7:a4:fe:78:95:cf:2b:2a:47:e1:89:12:ec:78:46:
                    a7:73
                Exponent: 65537 (0x10001)
        X509v3 extensions:
            X509v3 Key Usage: critical
                Digital Signature, Key Encipherment
            X509v3 Basic Constraints: 
                CA:FALSE
            X509v3 Extended Key Usage: 
                TLS Web Server Authentication, TLS Web Client Authentication
            X509v3 Subject Key Identifier: 
                38:79:FC:16:78:FB:3E:81:80:FD:BB:37:46:78:16:28:43:EC:74:CD
            X509v3 Authority Key Identifier: 
                keyid:D3:4E:79:53:0D:69:BE:B5:F8:CE:F5:BD:BD:74:BB:70:96:AC:62:C6

            X509v3 Subject Alternative Name: 
                DNS:www.simple.org
    Signature Algorithm: sha1WithRSAEncryption
         81:7d:0b:64:ec:05:90:58:f7:e3:e4:8b:fa:02:cd:c2:0f:af:
         42:60:1c:38:03:0b:a7:45:80:d5:b8:04:70:4e:73:38:4d:84:
         87:07:bd:79:78:a9:37:32:43:19:b6:14:87:9d:7e:c4:e0:7a:
         c0:7b:83:a1:ed:14:86:31:3c:25:99:1c:e4:e4:7f:61:0c:a3:
         d7:94:37:c1:af:ab:bd:c9:9b:1a:74:a3:49:53:e1:81:85:f8:
         0e:23:a5:c0:29:db:14:b8:e8:09:38:fe:69:c2:52:15:2b:d6:
         fe:2e:44:ff:04:3b:e4:8e:4c:ee:42:b8:f7:38:20:b8:58:c7:
         ff:3d:ce:98:25:56:ec:1e:b1:dc:00:3b:b2:2a:8b:7e:4b:e7:
         07:46:39:24:d7:27:2d:5d:64:0b:7f:ed:15:52:2b:a2:f3:14:
         dc:d8:8b:64:21:d7:4c:58:fe:d8:13:d4:0d:67:73:92:46:84:
         7d:fa:ec:18:8c:53:b4:93:3b:82:58:1b:c0:95:a1:98:25:cb:
         b5:8b:19:4b:8e:98:35:f6:5e:7d:b8:e1:41:d3:7b:2d:be:43:
         17:fb:6c:40:f3:d3:c4:59:e8:80:85:b3:00:bd:04:30:16:04:
         ed:de:c6:1a:62:9c:f2:e0:dd:c2:db:b7:8b:ad:f2:99:e2:2c:
         1b:c5:38:56
-----BEGIN CERTIFICATE-----
MIID6TCCAtGgAwIBAgIBAjANBgkqhkiG9w0BAQUFADB6MRMwEQYKCZImiZPyLGQB
GRYDb3JnMRYwFAYKCZImiZPyLGQBGRYGc2ltcGxlMRMwEQYDVQQKDApTaW1wbGUg
SW5jMRowGAYDVQQLDBFTaW1wbGUgU2lnbmluZyBDQTEaMBgGA1UEAwwRU2ltcGxl
IFNpZ25pbmcgQ0EwHhcNMjAwNTA0MDEyNTM2WhcNMjIwNTA0MDEyNTM2WjBbMRMw
EQYKCZImiZPyLGQBGRYDb3JnMRYwFAYKCZImiZPyLGQBGRYGc2ltcGxlMRMwEQYD
VQQKDApTaW1wbGUgSW5jMRcwFQYDVQQDDA53d3cuc2ltcGxlLm9yZzCCASIwDQYJ
KoZIhvcNAQEBBQADggEPADCCAQoCggEBAMnZdJPncfDQ2qXzhsQuD62chEY8bCiU
QUb9i018tIAHV+ymzuiw7VgXQ5EUAUDs6frh/59D7h8vEv603BTjEc6XEGodSc7h
P0xOCWz1xPSiQBi70e/i6PBY4xIUgaa3Lihlb0ny+MqRL58bMXpGSpylm/H350o2
9WFoS3Z/iDMj+7yaKPH4vxEaO9lNmFQCUtqFqwcOT8WF6vdq7Tak/nxRVnHEdlpq
Ohv/EYBFyXMhpgtma9GzWxf35bKvowugoCPCScO0yrAf6KzjXDi1IPUuY96NiAH4
BbQqu0ma4DJVOpNlPxpsecQMTmRRFwKHx6T+eJXPKypH4YkS7HhGp3MCAwEAAaOB
mDCBlTAOBgNVHQ8BAf8EBAMCBaAwCQYDVR0TBAIwADAdBgNVHSUEFjAUBggrBgEF
BQcDAQYIKwYBBQUHAwIwHQYDVR0OBBYEFDh5/BZ4+z6BgP27N0Z4FihD7HTNMB8G
A1UdIwQYMBaAFNNOeVMNab61+M71vb10u3CWrGLGMBkGA1UdEQQSMBCCDnd3dy5z
aW1wbGUub3JnMA0GCSqGSIb3DQEBBQUAA4IBAQCBfQtk7AWQWPfj5Iv6As3CD69C
YBw4AwunRYDVuARwTnM4TYSHB715eKk3MkMZthSHnX7E4HrAe4Oh7RSGMTwlmRzk
5H9hDKPXlDfBr6u9yZsadKNJU+GBhfgOI6XAKdsUuOgJOP5pwlIVK9b+LkT/BDvk
jkzuQrj3OCC4WMf/Pc6YJVbsHrHcADuyKot+S+cHRjkk1yctXWQLf+0VUiui8xTc
2ItkIddMWP7YE9QNZ3OSRoR9+uwYjFO0kzuCWBvAlaGYJcu1ixlLjpg19l59uOFB
03stvkMX+2xA89PEWeiAhbMAvQQwFgTt3sYaYpzy4N3C27eLrfKZ4iwbxThW
-----END CERTIFICATE-----
