Certificate:
    Data:
        Version: 3 (0x2)
        Serial Number: 1 (0x1)
    Signature Algorithm: sha1WithRSAEncryption
        Issuer: DC=org, DC=simple, O=Simple Inc, OU=Simple Root CA, CN=Simple Root CA
        Validity
            Not Before: May  4 01:20:23 2020 GMT
            Not After : May  4 01:20:23 2030 GMT
        Subject: DC=org, DC=simple, O=Simple Inc, OU=Simple Root CA, CN=Simple Root CA
        Subject Public Key Info:
            Public Key Algorithm: rsaEncryption
                Public-Key: (2048 bit)
                Modulus:
                    00:cd:52:ca:26:ff:79:31:07:51:60:62:6a:7d:42:
                    4e:cd:0b:0d:e3:ff:ae:bf:bf:de:46:d5:56:c7:d3:
                    0a:30:c9:2d:e4:78:e4:8d:a2:d6:54:31:60:a7:58:
                    60:a2:f9:11:c8:f8:b3:33:ed:07:bc:67:c1:eb:ea:
                    8e:9b:2d:cf:26:af:a8:ba:25:ea:15:39:c7:b1:bc:
                    05:e6:2e:fe:c7:35:fe:e3:fd:4e:08:90:e1:f0:9b:
                    f1:5b:51:bd:31:0a:01:22:2f:d1:a2:91:15:4c:8f:
                    66:9d:dc:d7:fe:63:29:02:d8:32:c6:c9:b7:7d:dc:
                    35:23:b9:48:5b:f0:08:f8:16:ee:eb:cc:c7:8c:e3:
                    8e:82:8c:9f:23:0f:d5:61:b4:bc:46:24:18:d3:d0:
                    5c:f9:d6:4b:e5:0f:7e:0e:2d:6b:05:e2:60:b6:60:
                    f6:df:b8:f7:0a:23:de:33:4c:ed:7f:d8:fe:04:11:
                    b6:2c:41:fc:c5:e4:b5:12:0b:0f:6b:7e:6a:e8:d1:
                    37:4e:e4:b7:fe:dc:63:4e:37:a6:f4:bb:ee:a8:ea:
                    5f:d0:50:30:85:80:bf:8c:4f:1f:a5:6a:5a:58:a5:
                    14:db:31:3a:26:09:fe:ba:46:e1:10:20:3d:e7:02:
                    7f:dc:a9:84:c1:95:e7:fc:ab:c1:b5:a0:a6:ef:51:
                    63:cf
                Exponent: 65537 (0x10001)
        X509v3 extensions:
            X509v3 Key Usage: critical
                Certificate Sign, CRL Sign
            X509v3 Basic Constraints: critical
                CA:TRUE
            X509v3 Subject Key Identifier: 
                BD:01:92:6C:C2:4E:6E:14:DF:01:B1:7B:AB:9C:2B:1A:D2:2B:4D:29
            X509v3 Authority Key Identifier: 
                keyid:BD:01:92:6C:C2:4E:6E:14:DF:01:B1:7B:AB:9C:2B:1A:D2:2B:4D:29

    Signature Algorithm: sha1WithRSAEncryption
         be:72:11:65:ba:3e:fa:88:3d:0c:68:aa:72:8c:b2:93:e7:0b:
         25:58:fd:71:4a:65:86:8b:e8:dd:c3:39:88:d7:cf:c6:58:f7:
         1e:29:90:8d:2a:33:40:8a:e3:bb:59:0b:c2:cc:3e:d2:f2:8e:
         66:61:43:f2:3c:94:9d:ec:bf:94:50:80:fd:f3:53:18:04:f2:
         c9:51:bb:be:d9:4f:20:60:ee:6f:a4:ad:fd:b0:e4:32:fa:ef:
         cd:ba:92:6a:29:8e:d2:7e:5a:76:87:01:80:92:71:1d:49:78:
         9c:86:ef:ec:ed:63:99:d6:b8:f6:ec:95:c2:c4:55:1a:4c:45:
         bc:3b:5e:95:f1:21:45:b9:4e:05:4e:6f:cd:9e:f3:3b:51:ec:
         44:00:1f:eb:ac:24:9e:11:cf:65:18:a4:54:1a:f5:5c:07:dc:
         3a:fb:c2:5a:4b:63:b0:42:b5:22:05:5f:b8:72:eb:81:d2:64:
         42:ad:9b:b9:76:90:ee:a6:ea:b4:f3:13:1d:99:42:1c:33:bb:
         85:3d:32:3e:f4:72:b9:13:df:7c:28:70:4a:4f:64:c0:be:35:
         04:1f:af:c2:91:53:2f:16:cb:f8:40:52:ba:ef:b3:38:99:93:
         60:60:fe:a1:67:9f:87:1a:bd:36:c0:03:b2:29:33:d0:bd:cb:
         1e:16:bf:71
-----BEGIN CERTIFICATE-----
MIIDxjCCAq6gAwIBAgIBATANBgkqhkiG9w0BAQUFADB0MRMwEQYKCZImiZPyLGQB
GRYDb3JnMRYwFAYKCZImiZPyLGQBGRYGc2ltcGxlMRMwEQYDVQQKDApTaW1wbGUg
SW5jMRcwFQYDVQQLDA5TaW1wbGUgUm9vdCBDQTEXMBUGA1UEAwwOU2ltcGxlIFJv
b3QgQ0EwHhcNMjAwNTA0MDEyMDIzWhcNMzAwNTA0MDEyMDIzWjB0MRMwEQYKCZIm
iZPyLGQBGRYDb3JnMRYwFAYKCZImiZPyLGQBGRYGc2ltcGxlMRMwEQYDVQQKDApT
aW1wbGUgSW5jMRcwFQYDVQQLDA5TaW1wbGUgUm9vdCBDQTEXMBUGA1UEAwwOU2lt
cGxlIFJvb3QgQ0EwggEiMA0GCSqGSIb3DQEBAQUAA4IBDwAwggEKAoIBAQDNUsom
/3kxB1FgYmp9Qk7NCw3j/66/v95G1VbH0wowyS3keOSNotZUMWCnWGCi+RHI+LMz
7Qe8Z8Hr6o6bLc8mr6i6JeoVOcexvAXmLv7HNf7j/U4IkOHwm/FbUb0xCgEiL9Gi
kRVMj2ad3Nf+YykC2DLGybd93DUjuUhb8Aj4Fu7rzMeM446CjJ8jD9VhtLxGJBjT
0Fz51kvlD34OLWsF4mC2YPbfuPcKI94zTO1/2P4EEbYsQfzF5LUSCw9rfmro0TdO
5Lf+3GNON6b0u+6o6l/QUDCFgL+MTx+lalpYpRTbMTomCf66RuEQID3nAn/cqYTB
lef8q8G1oKbvUWPPAgMBAAGjYzBhMA4GA1UdDwEB/wQEAwIBBjAPBgNVHRMBAf8E
BTADAQH/MB0GA1UdDgQWBBS9AZJswk5uFN8BsXurnCsa0itNKTAfBgNVHSMEGDAW
gBS9AZJswk5uFN8BsXurnCsa0itNKTANBgkqhkiG9w0BAQUFAAOCAQEAvnIRZbo+
+og9DGiqcoyyk+cLJVj9cUplhovo3cM5iNfPxlj3HimQjSozQIrju1kLwsw+0vKO
ZmFD8jyUney/lFCA/fNTGATyyVG7vtlPIGDub6St/bDkMvrvzbqSaimO0n5adocB
gJJxHUl4nIbv7O1jmda49uyVwsRVGkxFvDtelfEhRblOBU5vzZ7zO1HsRAAf66wk
nhHPZRikVBr1XAfcOvvCWktjsEK1IgVfuHLrgdJkQq2buXaQ7qbqtPMTHZlCHDO7
hT0yPvRyuRPffChwSk9kwL41BB+vwpFTLxbL+EBSuu+zOJmTYGD+oWefhxq9NsAD
sikz0L3LHha/cQ==
-----END CERTIFICATE-----
